target datalayout = "e-m:e-p270:32:32-p271:32:32-p272:64:64-i64:64-i128:128-f80:128-n8:16:32:64-S128"
target triple = "x86_64-pc-linux-gnu"

%struct.field_info = type { ptr, i32, i32, i32, i32, i32, i32, ptr, ptr, ptr, i32, i32 }

; Function Attrs: nounwind uwtable
define hidden ptr @dfvm_get_raw_fvalue(ptr noundef %0) #0 {
  %2 = alloca ptr, align 8
  %3 = alloca ptr, align 8
  %4 = alloca ptr, align 8
  %5 = alloca ptr, align 8
  %6 = alloca i32, align 4
  %7 = alloca i32, align 4
  store ptr %0, ptr %3, align 8
  %8 = load ptr, ptr %3, align 8
  %9 = getelementptr inbounds %struct.field_info, ptr %8, i32 0, i32 8
  %10 = load ptr, ptr %9, align 8
  %11 = load ptr, ptr %3, align 8
  %12 = getelementptr inbounds %struct.field_info, ptr %11, i32 0, i32 1
  %13 = load i32, ptr %12, align 8
  %14 = call i32 @tvb_captured_length_remaining(ptr noundef %10, i32 noundef %13)
  store i32 %14, ptr %7, align 4
  %15 = load i32, ptr %7, align 4
  %16 = icmp slt i32 %15, 0
  br i1 %16, label %17, label %18

17:                                               ; preds = %1
  store ptr null, ptr %2, align 8
  br label %44

18:                                               ; preds = %1
  %19 = load ptr, ptr %3, align 8
  %20 = getelementptr inbounds %struct.field_info, ptr %19, i32 0, i32 2
  %21 = load i32, ptr %20, align 4
  store i32 %21, ptr %6, align 4
  %22 = load i32, ptr %6, align 4
  %23 = load i32, ptr %7, align 4
  %24 = icmp sgt i32 %22, %23
  br i1 %24, label %25, label %27

25:                                               ; preds = %18
  %26 = load i32, ptr %7, align 4
  store i32 %26, ptr %6, align 4
  br label %27

27:                                               ; preds = %25, %18
  %28 = call ptr @g_byte_array_new()
  store ptr %28, ptr %4, align 8
  %29 = load ptr, ptr %4, align 8
  %30 = load ptr, ptr %3, align 8
  %31 = getelementptr inbounds %struct.field_info, ptr %30, i32 0, i32 8
  %32 = load ptr, ptr %31, align 8
  %33 = load ptr, ptr %3, align 8
  %34 = getelementptr inbounds %struct.field_info, ptr %33, i32 0, i32 1
  %35 = load i32, ptr %34, align 8
  %36 = load i32, ptr %6, align 4
  %37 = call ptr @tvb_get_ptr(ptr noundef %32, i32 noundef %35, i32 noundef %36)
  %38 = load i32, ptr %6, align 4
  %39 = call ptr @g_byte_array_append(ptr noundef %29, ptr noundef %37, i32 noundef %38)
  %40 = call ptr @fvalue_new(i32 noundef 30)
  store ptr %40, ptr %5, align 8
  %41 = load ptr, ptr %5, align 8
  %42 = load ptr, ptr %4, align 8
  call void @fvalue_set_byte_array(ptr noundef %41, ptr noundef %42)
  %43 = load ptr, ptr %5, align 8
  store ptr %43, ptr %2, align 8
  br label %44

44:                                               ; preds = %27, %17
  %45 = load ptr, ptr %2, align 8
  ret ptr %45
}