; Function Attrs: nounwind uwtable
define hidden noundef ptr @dfvm_get_raw_fvalue(ptr noundef readonly captures(none) %0) local_unnamed_addr #2 {
  %2 = getelementptr inbounds nuw i8, ptr %0, i64 40
  %3 = load ptr, ptr %2, align 8
  %4 = getelementptr inbounds nuw i8, ptr %0, i64 8
  %5 = load i32, ptr %4, align 8
  %6 = tail call i32 @tvb_captured_length_remaining(ptr noundef %3, i32 noundef %5) #11
  %7 = icmp slt i32 %6, 0
  br i1 %7, label %17, label %8

8:                                                ; preds = %1
  %9 = getelementptr inbounds nuw i8, ptr %0, i64 12
  %10 = load i32, ptr %9, align 4
  %spec.select = tail call i32 @llvm.smin.i32(i32 %10, i32 %6)
  %11 = tail call ptr @g_byte_array_new() #11
  %12 = load ptr, ptr %2, align 8
  %13 = load i32, ptr %4, align 8
  %14 = tail call ptr @tvb_get_ptr(ptr noundef %12, i32 noundef %13, i32 noundef %spec.select) #11
  %15 = tail call ptr @g_byte_array_append(ptr noundef %11, ptr noundef %14, i32 noundef %spec.select) #11
  %16 = tail call ptr @fvalue_new(i32 noundef 30) #11
  tail call void @fvalue_set_byte_array(ptr noundef %16, ptr noundef %11) #11
  br label %17

17:                                               ; preds = %1, %8
  %.0 = phi ptr [ %16, %8 ], [ null, %1 ]
  ret ptr %.0
}